target datalayout = "e-m:e-p270:32:32-p271:32:32-p272:64:64-i64:64-i128:128-f80:128-n8:16:32:64-S128"
target triple = "x86_64-pc-linux-gnu"

%struct.SyncStandbySlotsConfigData = type { i32, [0 x i8] }

@synchronized_standby_slots_config = internal global ptr null, align 8

; Function Attrs: nounwind uwtable
define dso_local zeroext i1 @SlotExistsInSyncStandbySlots(ptr noundef %0) #0 {
  %2 = alloca i1, align 1
  %3 = alloca ptr, align 8
  %4 = alloca ptr, align 8
  %5 = alloca i32, align 4
  %6 = alloca i32, align 4
  store ptr %0, ptr %3, align 8
  call void @llvm.lifetime.start.p0(i64 8, ptr %4) #12
  %7 = load ptr, ptr @synchronized_standby_slots_config, align 8
  %8 = icmp eq ptr %7, null
  br i1 %8, label %9, label %10

9:                                                ; preds = %1
  store i1 false, ptr %2, align 1
  store i32 1, ptr %5, align 4
  br label %39

10:                                               ; preds = %1
  %11 = load ptr, ptr @synchronized_standby_slots_config, align 8
  %12 = getelementptr inbounds nuw %struct.SyncStandbySlotsConfigData, ptr %11, i32 0, i32 1
  %13 = getelementptr inbounds [0 x i8], ptr %12, i64 0, i64 0
  store ptr %13, ptr %4, align 8
  call void @llvm.lifetime.start.p0(i64 4, ptr %6) #12
  store i32 0, ptr %6, align 4
  br label %14

14:                                               ; preds = %33, %10
  %15 = load i32, ptr %6, align 4
  %16 = load ptr, ptr @synchronized_standby_slots_config, align 8
  %17 = getelementptr inbounds nuw %struct.SyncStandbySlotsConfigData, ptr %16, i32 0, i32 0
  %18 = load i32, ptr %17, align 4
  %19 = icmp slt i32 %15, %18
  br i1 %19, label %21, label %20

20:                                               ; preds = %14
  store i32 2, ptr %5, align 4
  br label %36

21:                                               ; preds = %14
  %22 = load ptr, ptr %4, align 8
  %23 = load ptr, ptr %3, align 8
  %24 = call i32 @strcmp(ptr noundef %22, ptr noundef %23) #13
  %25 = icmp eq i32 %24, 0
  br i1 %25, label %26, label %27

26:                                               ; preds = %21
  store i1 true, ptr %2, align 1
  store i32 1, ptr %5, align 4
  br label %36

27:                                               ; preds = %21
  %28 = load ptr, ptr %4, align 8
  %29 = call i64 @strlen(ptr noundef %28) #13
  %30 = add i64 %29, 1
  %31 = load ptr, ptr %4, align 8
  %32 = getelementptr inbounds nuw i8, ptr %31, i64 %30
  store ptr %32, ptr %4, align 8
  br label %33

33:                                               ; preds = %27
  %34 = load i32, ptr %6, align 4
  %35 = add i32 %34, 1
  store i32 %35, ptr %6, align 4
  br label %14, !llvm.loop !55

36:                                               ; preds = %26, %20
  call void @llvm.lifetime.end.p0(i64 4, ptr %6) #12
  %37 = load i32, ptr %5, align 4
  switch i32 %37, label %39 [
    i32 2, label %38
  ]

38:                                               ; preds = %36
  store i1 false, ptr %2, align 1
  store i32 1, ptr %5, align 4
  br label %39

39:                                               ; preds = %38, %36, %9
  call void @llvm.lifetime.end.p0(i64 8, ptr %4) #12
  %40 = load i1, ptr %2, align 1
  ret i1 %40
}