; Function Attrs: nofree nounwind memory(read, inaccessiblemem: none) uwtable
define dso_local noundef zeroext i1 @SlotExistsInSyncStandbySlots(ptr noundef readonly captures(none) %0) local_unnamed_addr #7 {
  %2 = load ptr, ptr @synchronized_standby_slots_config, align 8
  %3 = icmp eq ptr %2, null
  br i1 %3, label %.loopexit, label %4

4:                                                ; preds = %1
  %5 = load i32, ptr %2, align 4
  %.not11 = icmp sgt i32 %5, 0
  br i1 %.not11, label %.lr.ph.preheader, label %.loopexit

.lr.ph.preheader:                                 ; preds = %4
  %6 = getelementptr inbounds nuw i8, ptr %2, i64 4
  br label %.lr.ph

.lr.ph:                                           ; preds = %.lr.ph.preheader, %9
  %.013 = phi i32 [ %13, %9 ], [ 0, %.lr.ph.preheader ]
  %.0812 = phi ptr [ %12, %9 ], [ %6, %.lr.ph.preheader ]
  %7 = tail call i32 @strcmp(ptr noundef nonnull dereferenceable(1) %.0812, ptr noundef nonnull dereferenceable(1) %0) #18
  %8 = icmp eq i32 %7, 0
  br i1 %8, label %.loopexit, label %9

9:                                                ; preds = %.lr.ph
  %10 = tail call i64 @strlen(ptr noundef nonnull dereferenceable(1) %.0812) #18
  %11 = getelementptr i8, ptr %.0812, i64 %10
  %12 = getelementptr i8, ptr %11, i64 1
  %13 = add nuw nsw i32 %.013, 1
  %exitcond.not = icmp eq i32 %13, %5
  br i1 %exitcond.not, label %.loopexit, label %.lr.ph, !llvm.loop !49

.loopexit:                                        ; preds = %.lr.ph, %9, %4, %1
  %.09 = phi i1 [ false, %1 ], [ false, %4 ], [ %8, %9 ], [ %8, %.lr.ph ]
  ret i1 %.09
}